; Function Attrs: mustprogress uwtable
define void @Z3_probe_inc_ref(ptr noundef %c, ptr noundef %p) local_unnamed_addr #3 personality ptr @__gxx_personality_v0 {
entry:
  %0 = atomicrmw xchg ptr @g_z3_log_enabled, i8 0 seq_cst, align 1
  %1 = and i8 %0, 1
  %tobool.i.not = icmp eq i8 %1, 0
  br i1 %tobool.i.not, label %if.end, label %if.then

if.then:                                          ; preds = %entry
  invoke void @_Z20log_Z3_probe_inc_refP11_Z3_contextP9_Z3_probe(ptr noundef %c, ptr noundef %p)
          to label %if.end unwind label %lpad1.thread

lpad1.thread:                                     ; preds = %if.then
  %2 = landingpad { ptr, i32 }
          cleanup
          catch ptr @_ZTI12z3_exception
  %3 = extractvalue { ptr, i32 } %2, 1
  br label %if.then.i

lpad1:                                            ; preds = %if.end
  %4 = landingpad { ptr, i32 }
          cleanup
          catch ptr @_ZTI12z3_exception
  %5 = extractvalue { ptr, i32 } %4, 1
  br i1 %tobool.i.not, label %_ZN10z3_log_ctxD2Ev.exit, label %if.then.i

if.then.i:                                        ; preds = %lpad1.thread, %lpad1
  %6 = phi i32 [ %3, %lpad1.thread ], [ %5, %lpad1 ]
  %7 = phi { ptr, i32 } [ %2, %lpad1.thread ], [ %4, %lpad1 ]
  store atomic i8 1, ptr @g_z3_log_enabled seq_cst, align 1
  br label %_ZN10z3_log_ctxD2Ev.exit

_ZN10z3_log_ctxD2Ev.exit:                         ; preds = %lpad1, %if.then.i
  %8 = phi i32 [ %5, %lpad1 ], [ %6, %if.then.i ]
  %9 = phi { ptr, i32 } [ %4, %lpad1 ], [ %7, %if.then.i ]
  %10 = tail call i32 @llvm.eh.typeid.for(ptr nonnull @_ZTI12z3_exception) #19
  %matches = icmp eq i32 %8, %10
  br i1 %matches, label %catch, label %eh.resume

catch:                                            ; preds = %_ZN10z3_log_ctxD2Ev.exit
  %11 = extractvalue { ptr, i32 } %9, 0
  %12 = tail call ptr @__cxa_begin_catch(ptr %11) #19
  invoke void @_ZN3api7context16handle_exceptionER12z3_exception(ptr noundef nonnull align 8 dereferenceable(3048) %c, ptr noundef nonnull align 8 dereferenceable(8) %12)
          to label %invoke.cont13 unwind label %lpad10

invoke.cont13:                                    ; preds = %catch
  tail call void @__cxa_end_catch()
  br label %try.cont

if.end:                                           ; preds = %if.then, %entry
  %m_error_code.i = getelementptr inbounds i8, ptr %c, i64 1560
  store i32 0, ptr %m_error_code.i, align 8
  invoke void @_ZN3api6object7inc_refEv(ptr noundef nonnull align 8 dereferenceable(24) %p)
          to label %invoke.cont9 unwind label %lpad1

invoke.cont9:                                     ; preds = %if.end
  br i1 %tobool.i.not, label %try.cont, label %if.then.i6

if.then.i6:                                       ; preds = %invoke.cont9
  store atomic i8 1, ptr @g_z3_log_enabled seq_cst, align 1
  br label %try.cont

lpad10:                                           ; preds = %catch
  %13 = landingpad { ptr, i32 }
          cleanup
  invoke void @__cxa_end_catch()
          to label %eh.resume unwind label %terminate.lpad

try.cont:                                         ; preds = %if.then.i6, %invoke.cont9, %invoke.cont13
  ret void

eh.resume:                                        ; preds = %lpad10, %_ZN10z3_log_ctxD2Ev.exit
  %lpad.val17.merged = phi { ptr, i32 } [ %13, %lpad10 ], [ %9, %_ZN10z3_log_ctxD2Ev.exit ]
  resume { ptr, i32 } %lpad.val17.merged

terminate.lpad:                                   ; preds = %lpad10
  %14 = landingpad { ptr, i32 }
          catch ptr null
  %15 = extractvalue { ptr, i32 } %14, 0
  tail call void @__clang_call_terminate(ptr %15) #20
  unreachable
}